target datalayout = "e-m:e-p270:32:32-p271:32:32-p272:64:64-i64:64-i128:128-f80:128-n8:16:32:64-S128"
target triple = "x86_64-pc-linux-gnu"

%struct.nstime_t = type { i64, i32 }
%struct._address = type { i32, i32, ptr, ptr }
%struct._conversation_item_t = type { ptr, %struct._address, %struct._address, i32, i32, i32, i32, i64, i64, i64, i64, i64, i64, i64, i64, %struct.nstime_t, %struct.nstime_t, %struct.nstime_t, i8, %struct._conversation_extension_tcp_t }
%struct._conversation_extension_tcp_t = type { i64 }

@.str.72 = private unnamed_addr constant [7 x i8] c"ip.dst\00", align 1
@.str.76 = private unnamed_addr constant [7 x i8] c"ip.src\00", align 1
@.str.80 = private unnamed_addr constant [8 x i8] c"ip.addr\00", align 1
@.str.554 = private unnamed_addr constant [8 x i8] c"INVALID\00", align 1

; Function Attrs: nounwind null_pointer_is_valid sspstrong uwtable
define internal ptr @ip_conv_get_filter_type(ptr noundef %0, i32 noundef %1) #3 {
  %3 = alloca ptr, align 8
  %4 = alloca ptr, align 8
  %5 = alloca i32, align 4
  store ptr %0, ptr %4, align 8
  store i32 %1, ptr %5, align 4
  %6 = load i32, ptr %5, align 4
  %7 = icmp eq i32 %6, 0
  br i1 %7, label %8, label %21

8:                                                ; preds = %2
  %9 = load ptr, ptr %4, align 8
  %10 = getelementptr inbounds nuw %struct._conversation_item_t, ptr %9, i32 0, i32 1
  %11 = getelementptr inbounds nuw %struct._address, ptr %10, i32 0, i32 0
  %12 = load i32, ptr %11, align 8
  %13 = icmp eq i32 %12, 2
  br i1 %13, label %20, label %14

14:                                               ; preds = %8
  %15 = load ptr, ptr %4, align 8
  %16 = getelementptr inbounds nuw %struct._conversation_item_t, ptr %15, i32 0, i32 1
  %17 = getelementptr inbounds nuw %struct._address, ptr %16, i32 0, i32 0
  %18 = load i32, ptr %17, align 8
  %19 = icmp eq i32 %18, 7
  br i1 %19, label %20, label %21

20:                                               ; preds = %14, %8
  store ptr @.str.76, ptr %3, align 8
  br label %54

21:                                               ; preds = %14, %2
  %22 = load i32, ptr %5, align 4
  %23 = icmp eq i32 %22, 1
  br i1 %23, label %24, label %37

24:                                               ; preds = %21
  %25 = load ptr, ptr %4, align 8
  %26 = getelementptr inbounds nuw %struct._conversation_item_t, ptr %25, i32 0, i32 2
  %27 = getelementptr inbounds nuw %struct._address, ptr %26, i32 0, i32 0
  %28 = load i32, ptr %27, align 8
  %29 = icmp eq i32 %28, 2
  br i1 %29, label %36, label %30

30:                                               ; preds = %24
  %31 = load ptr, ptr %4, align 8
  %32 = getelementptr inbounds nuw %struct._conversation_item_t, ptr %31, i32 0, i32 2
  %33 = getelementptr inbounds nuw %struct._address, ptr %32, i32 0, i32 0
  %34 = load i32, ptr %33, align 8
  %35 = icmp eq i32 %34, 7
  br i1 %35, label %36, label %37

36:                                               ; preds = %30, %24
  store ptr @.str.72, ptr %3, align 8
  br label %54

37:                                               ; preds = %30, %21
  %38 = load i32, ptr %5, align 4
  %39 = icmp eq i32 %38, 2
  br i1 %39, label %40, label %53

40:                                               ; preds = %37
  %41 = load ptr, ptr %4, align 8
  %42 = getelementptr inbounds nuw %struct._conversation_item_t, ptr %41, i32 0, i32 1
  %43 = getelementptr inbounds nuw %struct._address, ptr %42, i32 0, i32 0
  %44 = load i32, ptr %43, align 8
  %45 = icmp eq i32 %44, 2
  br i1 %45, label %52, label %46

46:                                               ; preds = %40
  %47 = load ptr, ptr %4, align 8
  %48 = getelementptr inbounds nuw %struct._conversation_item_t, ptr %47, i32 0, i32 1
  %49 = getelementptr inbounds nuw %struct._address, ptr %48, i32 0, i32 0
  %50 = load i32, ptr %49, align 8
  %51 = icmp eq i32 %50, 7
  br i1 %51, label %52, label %53

52:                                               ; preds = %46, %40
  store ptr @.str.80, ptr %3, align 8
  br label %54

53:                                               ; preds = %46, %37
  store ptr @.str.554, ptr %3, align 8
  br label %54

54:                                               ; preds = %53, %52, %36, %20
  %55 = load ptr, ptr %3, align 8
  ret ptr %55
}