; Function Attrs: mustprogress nofree norecurse nosync nounwind null_pointer_is_valid sspstrong willreturn memory(argmem: read) uwtable
define internal nonnull ptr @ip_conv_get_filter_type(ptr noundef readonly captures(none) %0, i32 noundef %1) #6 {
  %3 = icmp ult i32 %1, 3
  br i1 %3, label %switch.lookup, label %9

switch.lookup:                                    ; preds = %2
  %4 = zext nneg i32 %1 to i64
  %switch.gep = getelementptr inbounds nuw [3 x i64], ptr @switch.table.ip_conv_get_filter_type, i64 0, i64 %4
  %switch.load = load i64, ptr %switch.gep, align 8
  %5 = zext nneg i32 %1 to i64
  %switch.gep20 = getelementptr inbounds nuw [3 x ptr], ptr @switch.table.ip_conv_get_filter_type.1, i64 0, i64 %5
  %switch.load21 = load ptr, ptr %switch.gep20, align 8
  %6 = getelementptr inbounds nuw i8, ptr %0, i64 %switch.load
  %7 = load i32, ptr %6, align 8
  %switch.selectcmp.case115 = icmp eq i32 %7, 2
  %switch.selectcmp.case216 = icmp eq i32 %7, 7
  %switch.selectcmp17 = or i1 %switch.selectcmp.case115, %switch.selectcmp.case216
  %8 = select i1 %switch.selectcmp17, ptr %switch.load21, ptr @.str.554
  br label %9

9:                                                ; preds = %2, %switch.lookup
  %.0 = phi ptr [ @.str.554, %2 ], [ %8, %switch.lookup ]
  ret ptr %.0
}